target datalayout = "e-m:e-p270:32:32-p271:32:32-p272:64:64-i64:64-i128:128-f80:128-n8:16:32:64-S128"
target triple = "x86_64-pc-linux-gnu"

; Function Attrs: null_pointer_is_valid sspstrong uwtable
define internal zeroext i1 @dissect_atn_ulcs_heur(ptr noundef %0, ptr noundef %1, ptr noundef %2, ptr noundef %3) #0 {
  %5 = alloca i1, align 1
  %6 = alloca ptr, align 8
  %7 = alloca ptr, align 8
  %8 = alloca ptr, align 8
  %9 = alloca ptr, align 8
  store ptr %0, ptr %6, align 8
  store ptr %1, ptr %7, align 8
  store ptr %2, ptr %8, align 8
  store ptr %3, ptr %9, align 8
  %10 = load ptr, ptr %6, align 8
  %11 = call i32 @tvb_captured_length(ptr noundef %10)
  %12 = icmp ult i32 %11, 2
  br i1 %12, label %13, label %14

13:                                               ; preds = %4
  store i1 false, ptr %5, align 1
  br label %37

14:                                               ; preds = %4
  %15 = load ptr, ptr %6, align 8
  %16 = call zeroext i16 @tvb_get_ntohs(ptr noundef %15, i32 noundef 0)
  %17 = zext i16 %16 to i32
  %18 = and i32 %17, 63743
  switch i32 %18, label %24 [
    i32 59394, label %19
    i32 63490, label %19
    i32 61442, label %19
    i32 55298, label %19
    i32 57346, label %19
    i32 57362, label %19
    i32 57378, label %19
    i32 57394, label %19
    i32 57410, label %19
    i32 57426, label %19
    i32 57442, label %19
    i32 57458, label %19
    i32 40962, label %19
    i32 40978, label %19
    i32 40994, label %19
    i32 41010, label %19
    i32 41026, label %19
    i32 41042, label %19
    i32 41058, label %19
    i32 41074, label %19
  ]

19:                                               ; preds = %14, %14, %14, %14, %14, %14, %14, %14, %14, %14, %14, %14, %14, %14, %14, %14, %14, %14, %14, %14
  %20 = load ptr, ptr %6, align 8
  %21 = load ptr, ptr %7, align 8
  %22 = load ptr, ptr %8, align 8
  %23 = call i32 @dissect_atn_ulcs(ptr noundef %20, ptr noundef %21, ptr noundef %22, ptr noundef inttoptr (i64 1 to ptr))
  store i1 true, ptr %5, align 1
  br label %37

24:                                               ; preds = %14
  br label %25

25:                                               ; preds = %24
  %26 = load ptr, ptr %6, align 8
  %27 = call zeroext i16 @tvb_get_ntohs(ptr noundef %26, i32 noundef 0)
  %28 = zext i16 %27 to i32
  %29 = and i32 %28, 65520
  switch i32 %29, label %35 [
    i32 32, label %30
    i32 160, label %30
  ]

30:                                               ; preds = %25, %25
  %31 = load ptr, ptr %6, align 8
  %32 = load ptr, ptr %7, align 8
  %33 = load ptr, ptr %8, align 8
  %34 = call i32 @dissect_atn_ulcs(ptr noundef %31, ptr noundef %32, ptr noundef %33, ptr noundef null)
  store i1 true, ptr %5, align 1
  br label %37

35:                                               ; preds = %25
  br label %36

36:                                               ; preds = %35
  store i1 false, ptr %5, align 1
  br label %37

37:                                               ; preds = %36, %30, %19, %13
  %38 = load i1, ptr %5, align 1
  ret i1 %38
}